target datalayout = "e-m:e-p270:32:32-p271:32:32-p272:64:64-i64:64-i128:128-f80:128-n8:16:32:64-S128"
target triple = "x86_64-pc-linux-gnu"

%struct.AVCodecContext = type { ptr, i32, i32, ptr, i32, i32, ptr, ptr, ptr, i64, i32, i32, ptr, i32, %struct.AVRational, %struct.AVRational, %struct.AVRational, i32, i32, i32, i32, i32, %struct.AVRational, i32, i32, i32, i32, i32, i32, i32, i32, i32, i32, i32, ptr, ptr, i32, float, float, float, float, float, float, float, float, float, i32, i32, i32, i32, i32, i32, i32, i32, i32, i32, i32, i32, ptr, ptr, ptr, i32, i32, i32, i32, i32, i32, i32, i32, i32, i32, %struct.AVChannelLayout, i32, i32, i32, i32, i32, i32, i32, i32, ptr, i32, i32, i32, float, float, i32, i32, i32, i32, i32, ptr, i64, i64, float, float, i32, i32, ptr, ptr, i32, i32, i32, i32, i32, ptr, ptr, ptr, ptr, i32, i32, [8 x i64], i32, i32, i32, i32, i32, i32, i32, ptr, ptr, i32, i32, i32, i32, i32, i32, i32, i32, i32, i32, ptr, ptr, i32, i32, ptr, ptr, ptr, ptr, i32, i32, i64, i32, i32, i64, ptr, i64, ptr, i32, ptr, i32 }
%struct.AVRational = type { i32, i32 }
%struct.AVChannelLayout = type { i32, i32, %union.anon.0, ptr }
%union.anon.0 = type { i64 }
%struct.AVRnContext = type { i32, i32 }
%struct.AVPacket = type { ptr, i64, i64, ptr, i32, i32, i32, ptr, i32, i64, i64, ptr, ptr, %struct.AVRational }
%struct.AVFrame = type { [8 x ptr], [8 x i32], ptr, i32, i32, i32, i32, i32, %struct.AVRational, i64, i64, %struct.AVRational, i32, ptr, i32, i32, [8 x ptr], ptr, i32, ptr, i32, i32, i32, i32, i32, i32, i32, i64, ptr, i32, ptr, ptr, i64, i64, i64, i64, ptr, %struct.AVChannelLayout, i64 }

@.str.3 = private unnamed_addr constant [18 x i8] c"packet too small\0A\00", align 1

; Function Attrs: nounwind uwtable
define internal i32 @decode_frame(ptr noundef %0, ptr noundef %1, ptr noundef %2, ptr noundef %3) #1 {
  %5 = alloca i32, align 4
  %6 = alloca ptr, align 8
  %7 = alloca ptr, align 8
  %8 = alloca ptr, align 8
  %9 = alloca ptr, align 8
  %10 = alloca ptr, align 8
  %11 = alloca ptr, align 8
  %12 = alloca i32, align 4
  %13 = alloca i32, align 4
  %14 = alloca i32, align 4
  %15 = alloca i32, align 4
  %16 = alloca i32, align 4
  store ptr %0, ptr %6, align 8, !tbaa !4
  store ptr %1, ptr %7, align 8, !tbaa !40
  store ptr %2, ptr %8, align 8, !tbaa !42
  store ptr %3, ptr %9, align 8, !tbaa !43
  call void @llvm.lifetime.start.p0(i64 8, ptr %10) #6
  %17 = load ptr, ptr %6, align 8, !tbaa !4
  %18 = getelementptr inbounds nuw %struct.AVCodecContext, ptr %17, i32 0, i32 6
  %19 = load ptr, ptr %18, align 8, !tbaa !9
  store ptr %19, ptr %10, align 8, !tbaa !29
  call void @llvm.lifetime.start.p0(i64 8, ptr %11) #6
  %20 = load ptr, ptr %9, align 8, !tbaa !43
  %21 = getelementptr inbounds nuw %struct.AVPacket, ptr %20, i32 0, i32 3
  %22 = load ptr, ptr %21, align 8, !tbaa !45
  store ptr %22, ptr %11, align 8, !tbaa !47
  call void @llvm.lifetime.start.p0(i64 4, ptr %12) #6
  %23 = load ptr, ptr %9, align 8, !tbaa !43
  %24 = getelementptr inbounds nuw %struct.AVPacket, ptr %23, i32 0, i32 4
  %25 = load i32, ptr %24, align 8, !tbaa !48
  store i32 %25, ptr %12, align 4, !tbaa !32
  call void @llvm.lifetime.start.p0(i64 4, ptr %13) #6
  call void @llvm.lifetime.start.p0(i64 4, ptr %14) #6
  call void @llvm.lifetime.start.p0(i64 4, ptr %15) #6
  %26 = load i32, ptr %12, align 4, !tbaa !32
  %27 = load ptr, ptr %6, align 8, !tbaa !4
  %28 = getelementptr inbounds nuw %struct.AVCodecContext, ptr %27, i32 0, i32 18
  %29 = load i32, ptr %28, align 8, !tbaa !30
  %30 = mul nsw i32 2, %29
  %31 = sdiv i32 %26, %30
  store i32 %31, ptr %15, align 4, !tbaa !32
  %32 = load i32, ptr %12, align 4, !tbaa !32
  %33 = load ptr, ptr %6, align 8, !tbaa !4
  %34 = getelementptr inbounds nuw %struct.AVCodecContext, ptr %33, i32 0, i32 18
  %35 = load i32, ptr %34, align 8, !tbaa !30
  %36 = mul nsw i32 2, %35
  %37 = load ptr, ptr %6, align 8, !tbaa !4
  %38 = getelementptr inbounds nuw %struct.AVCodecContext, ptr %37, i32 0, i32 19
  %39 = load i32, ptr %38, align 4, !tbaa !31
  %40 = mul nsw i32 %36, %39
  %41 = icmp slt i32 %32, %40
  br i1 %41, label %42, label %44

42:                                               ; preds = %4
  %43 = load ptr, ptr %6, align 8, !tbaa !4
  call void (ptr, i32, ptr, ...) @av_log(ptr noundef %43, i32 noundef 16, ptr noundef @.str.3)
  store i32 -1094995529, ptr %5, align 4
  store i32 1, ptr %16, align 4
  br label %196

44:                                               ; preds = %4
  %45 = load ptr, ptr %6, align 8, !tbaa !4
  %46 = load ptr, ptr %7, align 8, !tbaa !40
  %47 = call i32 @ff_get_buffer(ptr noundef %45, ptr noundef %46, i32 noundef 0)
  store i32 %47, ptr %14, align 4, !tbaa !32
  %48 = icmp slt i32 %47, 0
  br i1 %48, label %49, label %51

49:                                               ; preds = %44
  %50 = load i32, ptr %14, align 4, !tbaa !32
  store i32 %50, ptr %5, align 4
  store i32 1, ptr %16, align 4
  br label %196

51:                                               ; preds = %44
  %52 = load ptr, ptr %10, align 8, !tbaa !29
  %53 = getelementptr inbounds nuw %struct.AVRnContext, ptr %52, i32 0, i32 0
  %54 = load i32, ptr %53, align 4, !tbaa !37
  %55 = icmp ne i32 %54, 0
  br i1 %55, label %56, label %143

56:                                               ; preds = %51
  %57 = load i32, ptr %15, align 4, !tbaa !32
  %58 = load ptr, ptr %6, align 8, !tbaa !4
  %59 = getelementptr inbounds nuw %struct.AVCodecContext, ptr %58, i32 0, i32 19
  %60 = load i32, ptr %59, align 4, !tbaa !31
  %61 = sub nsw i32 %57, %60
  %62 = load ptr, ptr %6, align 8, !tbaa !4
  %63 = getelementptr inbounds nuw %struct.AVCodecContext, ptr %62, i32 0, i32 18
  %64 = load i32, ptr %63, align 8, !tbaa !30
  %65 = mul nsw i32 %61, %64
  %66 = load ptr, ptr %11, align 8, !tbaa !47
  %67 = sext i32 %65 to i64
  %68 = getelementptr inbounds i8, ptr %66, i64 %67
  store ptr %68, ptr %11, align 8, !tbaa !47
  store i32 0, ptr %13, align 4, !tbaa !32
  br label %69

69:                                               ; preds = %139, %56
  %70 = load i32, ptr %13, align 4, !tbaa !32
  %71 = load ptr, ptr %6, align 8, !tbaa !4
  %72 = getelementptr inbounds nuw %struct.AVCodecContext, ptr %71, i32 0, i32 19
  %73 = load i32, ptr %72, align 4, !tbaa !31
  %74 = sub nsw i32 %73, 1
  %75 = icmp slt i32 %70, %74
  br i1 %75, label %76, label %142

76:                                               ; preds = %69
  %77 = load ptr, ptr %7, align 8, !tbaa !40
  %78 = getelementptr inbounds nuw %struct.AVFrame, ptr %77, i32 0, i32 0
  %79 = getelementptr inbounds [8 x ptr], ptr %78, i64 0, i64 0
  %80 = load ptr, ptr %79, align 8, !tbaa !47
  %81 = load i32, ptr %13, align 4, !tbaa !32
  %82 = load ptr, ptr %10, align 8, !tbaa !29
  %83 = getelementptr inbounds nuw %struct.AVRnContext, ptr %82, i32 0, i32 1
  %84 = load i32, ptr %83, align 4, !tbaa !39
  %85 = add nsw i32 %81, %84
  %86 = load ptr, ptr %7, align 8, !tbaa !40
  %87 = getelementptr inbounds nuw %struct.AVFrame, ptr %86, i32 0, i32 1
  %88 = getelementptr inbounds [8 x i32], ptr %87, i64 0, i64 0
  %89 = load i32, ptr %88, align 8, !tbaa !32
  %90 = mul nsw i32 %85, %89
  %91 = sext i32 %90 to i64
  %92 = getelementptr inbounds i8, ptr %80, i64 %91
  %93 = load ptr, ptr %11, align 8, !tbaa !47
  %94 = load ptr, ptr %6, align 8, !tbaa !4
  %95 = getelementptr inbounds nuw %struct.AVCodecContext, ptr %94, i32 0, i32 18
  %96 = load i32, ptr %95, align 8, !tbaa !30
  %97 = mul nsw i32 2, %96
  %98 = sext i32 %97 to i64
  call void @llvm.memcpy.p0.p0.i64(ptr align 1 %92, ptr align 1 %93, i64 %98, i1 false)
  %99 = load ptr, ptr %7, align 8, !tbaa !40
  %100 = getelementptr inbounds nuw %struct.AVFrame, ptr %99, i32 0, i32 0
  %101 = getelementptr inbounds [8 x ptr], ptr %100, i64 0, i64 0
  %102 = load ptr, ptr %101, align 8, !tbaa !47
  %103 = load i32, ptr %13, align 4, !tbaa !32
  %104 = load ptr, ptr %10, align 8, !tbaa !29
  %105 = getelementptr inbounds nuw %struct.AVRnContext, ptr %104, i32 0, i32 1
  %106 = load i32, ptr %105, align 4, !tbaa !39
  %107 = icmp ne i32 %106, 0
  %108 = xor i1 %107, true
  %109 = zext i1 %108 to i32
  %110 = add nsw i32 %103, %109
  %111 = load ptr, ptr %7, align 8, !tbaa !40
  %112 = getelementptr inbounds nuw %struct.AVFrame, ptr %111, i32 0, i32 1
  %113 = getelementptr inbounds [8 x i32], ptr %112, i64 0, i64 0
  %114 = load i32, ptr %113, align 8, !tbaa !32
  %115 = mul nsw i32 %110, %114
  %116 = sext i32 %115 to i64
  %117 = getelementptr inbounds i8, ptr %102, i64 %116
  %118 = load ptr, ptr %11, align 8, !tbaa !47
  %119 = load ptr, ptr %6, align 8, !tbaa !4
  %120 = getelementptr inbounds nuw %struct.AVCodecContext, ptr %119, i32 0, i32 18
  %121 = load i32, ptr %120, align 8, !tbaa !30
  %122 = load i32, ptr %15, align 4, !tbaa !32
  %123 = mul nsw i32 %121, %122
  %124 = sext i32 %123 to i64
  %125 = getelementptr inbounds i8, ptr %118, i64 %124
  %126 = getelementptr inbounds i8, ptr %125, i64 4
  %127 = load ptr, ptr %6, align 8, !tbaa !4
  %128 = getelementptr inbounds nuw %struct.AVCodecContext, ptr %127, i32 0, i32 18
  %129 = load i32, ptr %128, align 8, !tbaa !30
  %130 = mul nsw i32 2, %129
  %131 = sext i32 %130 to i64
  call void @llvm.memcpy.p0.p0.i64(ptr align 1 %117, ptr align 1 %126, i64 %131, i1 false)
  %132 = load ptr, ptr %6, align 8, !tbaa !4
  %133 = getelementptr inbounds nuw %struct.AVCodecContext, ptr %132, i32 0, i32 18
  %134 = load i32, ptr %133, align 8, !tbaa !30
  %135 = mul nsw i32 2, %134
  %136 = load ptr, ptr %11, align 8, !tbaa !47
  %137 = sext i32 %135 to i64
  %138 = getelementptr inbounds i8, ptr %136, i64 %137
  store ptr %138, ptr %11, align 8, !tbaa !47
  br label %139

139:                                              ; preds = %76
  %140 = load i32, ptr %13, align 4, !tbaa !32
  %141 = add nsw i32 %140, 2
  store i32 %141, ptr %13, align 4, !tbaa !32
  br label %69, !llvm.loop !49

142:                                              ; preds = %69
  br label %193

143:                                              ; preds = %51
  %144 = load i32, ptr %15, align 4, !tbaa !32
  %145 = load ptr, ptr %6, align 8, !tbaa !4
  %146 = getelementptr inbounds nuw %struct.AVCodecContext, ptr %145, i32 0, i32 19
  %147 = load i32, ptr %146, align 4, !tbaa !31
  %148 = sub nsw i32 %144, %147
  %149 = load ptr, ptr %6, align 8, !tbaa !4
  %150 = getelementptr inbounds nuw %struct.AVCodecContext, ptr %149, i32 0, i32 18
  %151 = load i32, ptr %150, align 8, !tbaa !30
  %152 = mul nsw i32 %148, %151
  %153 = mul nsw i32 %152, 2
  %154 = load ptr, ptr %11, align 8, !tbaa !47
  %155 = sext i32 %153 to i64
  %156 = getelementptr inbounds i8, ptr %154, i64 %155
  store ptr %156, ptr %11, align 8, !tbaa !47
  store i32 0, ptr %13, align 4, !tbaa !32
  br label %157

157:                                              ; preds = %189, %143
  %158 = load i32, ptr %13, align 4, !tbaa !32
  %159 = load ptr, ptr %6, align 8, !tbaa !4
  %160 = getelementptr inbounds nuw %struct.AVCodecContext, ptr %159, i32 0, i32 19
  %161 = load i32, ptr %160, align 4, !tbaa !31
  %162 = icmp slt i32 %158, %161
  br i1 %162, label %163, label %192

163:                                              ; preds = %157
  %164 = load ptr, ptr %7, align 8, !tbaa !40
  %165 = getelementptr inbounds nuw %struct.AVFrame, ptr %164, i32 0, i32 0
  %166 = getelementptr inbounds [8 x ptr], ptr %165, i64 0, i64 0
  %167 = load ptr, ptr %166, align 8, !tbaa !47
  %168 = load i32, ptr %13, align 4, !tbaa !32
  %169 = load ptr, ptr %7, align 8, !tbaa !40
  %170 = getelementptr inbounds nuw %struct.AVFrame, ptr %169, i32 0, i32 1
  %171 = getelementptr inbounds [8 x i32], ptr %170, i64 0, i64 0
  %172 = load i32, ptr %171, align 8, !tbaa !32
  %173 = mul nsw i32 %168, %172
  %174 = sext i32 %173 to i64
  %175 = getelementptr inbounds i8, ptr %167, i64 %174
  %176 = load ptr, ptr %11, align 8, !tbaa !47
  %177 = load ptr, ptr %6, align 8, !tbaa !4
  %178 = getelementptr inbounds nuw %struct.AVCodecContext, ptr %177, i32 0, i32 18
  %179 = load i32, ptr %178, align 8, !tbaa !30
  %180 = mul nsw i32 2, %179
  %181 = sext i32 %180 to i64
  call void @llvm.memcpy.p0.p0.i64(ptr align 1 %175, ptr align 1 %176, i64 %181, i1 false)
  %182 = load ptr, ptr %6, align 8, !tbaa !4
  %183 = getelementptr inbounds nuw %struct.AVCodecContext, ptr %182, i32 0, i32 18
  %184 = load i32, ptr %183, align 8, !tbaa !30
  %185 = mul nsw i32 2, %184
  %186 = load ptr, ptr %11, align 8, !tbaa !47
  %187 = sext i32 %185 to i64
  %188 = getelementptr inbounds i8, ptr %186, i64 %187
  store ptr %188, ptr %11, align 8, !tbaa !47
  br label %189

189:                                              ; preds = %163
  %190 = load i32, ptr %13, align 4, !tbaa !32
  %191 = add nsw i32 %190, 1
  store i32 %191, ptr %13, align 4, !tbaa !32
  br label %157, !llvm.loop !51

192:                                              ; preds = %157
  br label %193

193:                                              ; preds = %192, %142
  %194 = load ptr, ptr %8, align 8, !tbaa !42
  store i32 1, ptr %194, align 4, !tbaa !32
  %195 = load i32, ptr %12, align 4, !tbaa !32
  store i32 %195, ptr %5, align 4
  store i32 1, ptr %16, align 4
  br label %196

196:                                              ; preds = %193, %49, %42
  call void @llvm.lifetime.end.p0(i64 4, ptr %15) #6
  call void @llvm.lifetime.end.p0(i64 4, ptr %14) #6
  call void @llvm.lifetime.end.p0(i64 4, ptr %13) #6
  call void @llvm.lifetime.end.p0(i64 4, ptr %12) #6
  call void @llvm.lifetime.end.p0(i64 8, ptr %11) #6
  call void @llvm.lifetime.end.p0(i64 8, ptr %10) #6
  %197 = load i32, ptr %5, align 4
  ret i32 %197
}