; Function Attrs: nounwind uwtable
define internal i32 @decode_frame(ptr noundef %0, ptr noundef %1, ptr noundef writeonly captures(none) %2, ptr noundef readonly captures(none) %3) #1 {
  %5 = getelementptr inbounds nuw i8, ptr %0, i64 32
  %6 = load ptr, ptr %5, align 8, !tbaa !4
  %7 = getelementptr inbounds nuw i8, ptr %3, i64 24
  %8 = load ptr, ptr %7, align 8, !tbaa !36
  %9 = getelementptr inbounds nuw i8, ptr %3, i64 32
  %10 = load i32, ptr %9, align 8, !tbaa !38
  %11 = getelementptr inbounds nuw i8, ptr %0, i64 112
  %12 = load i32, ptr %11, align 8, !tbaa !27
  %13 = shl nsw i32 %12, 1
  %14 = sdiv i32 %10, %13
  %15 = getelementptr inbounds nuw i8, ptr %0, i64 116
  %16 = load i32, ptr %15, align 4, !tbaa !28
  %17 = mul nsw i32 %16, %13
  %18 = icmp slt i32 %10, %17
  br i1 %18, label %19, label %20

19:                                               ; preds = %4
  tail call void (ptr, i32, ptr, ...) @av_log(ptr noundef nonnull %0, i32 noundef 16, ptr noundef nonnull @.str.3) #5
  br label %94

20:                                               ; preds = %4
  %21 = tail call i32 @ff_get_buffer(ptr noundef nonnull %0, ptr noundef %1, i32 noundef 0) #5
  %22 = icmp slt i32 %21, 0
  br i1 %22, label %94, label %23

23:                                               ; preds = %20
  %24 = load i32, ptr %6, align 4, !tbaa !33
  %.not = icmp eq i32 %24, 0
  %25 = load i32, ptr %15, align 4, !tbaa !28
  br i1 %.not, label %69, label %26

26:                                               ; preds = %23
  %27 = icmp sgt i32 %25, 1
  br i1 %27, label %.lr.ph, label %.loopexit

.lr.ph:                                           ; preds = %26
  %28 = sub nsw i32 %14, %25
  %29 = load i32, ptr %11, align 8, !tbaa !27
  %30 = mul nsw i32 %28, %29
  %31 = sext i32 %30 to i64
  %32 = getelementptr inbounds i8, ptr %8, i64 %31
  %33 = getelementptr inbounds nuw i8, ptr %6, i64 4
  %34 = getelementptr inbounds nuw i8, ptr %1, i64 64
  br label %35

35:                                               ; preds = %.lr.ph, %35
  %36 = phi i32 [ %29, %.lr.ph ], [ %61, %35 ]
  %.05260 = phi ptr [ %32, %.lr.ph ], [ %64, %35 ]
  %.05359 = phi i32 [ 0, %.lr.ph ], [ %65, %35 ]
  %37 = load ptr, ptr %1, align 8, !tbaa !39
  %38 = load i32, ptr %33, align 4, !tbaa !35
  %39 = add nsw i32 %38, %.05359
  %40 = load i32, ptr %34, align 8, !tbaa !40
  %41 = mul nsw i32 %39, %40
  %42 = sext i32 %41 to i64
  %43 = getelementptr inbounds i8, ptr %37, i64 %42
  %44 = shl nsw i32 %36, 1
  %45 = sext i32 %44 to i64
  tail call void @llvm.memcpy.p0.p0.i64(ptr align 1 %43, ptr align 1 %.05260, i64 %45, i1 false)
  %46 = load ptr, ptr %1, align 8, !tbaa !39
  %47 = load i32, ptr %33, align 4, !tbaa !35
  %.not57 = icmp eq i32 %47, 0
  %48 = zext i1 %.not57 to i32
  %49 = or disjoint i32 %.05359, %48
  %50 = load i32, ptr %34, align 8, !tbaa !40
  %51 = mul nsw i32 %49, %50
  %52 = sext i32 %51 to i64
  %53 = getelementptr inbounds i8, ptr %46, i64 %52
  %54 = load i32, ptr %11, align 8, !tbaa !27
  %55 = mul nsw i32 %54, %14
  %56 = sext i32 %55 to i64
  %57 = getelementptr inbounds i8, ptr %.05260, i64 %56
  %58 = getelementptr inbounds nuw i8, ptr %57, i64 4
  %59 = shl nsw i32 %54, 1
  %60 = sext i32 %59 to i64
  tail call void @llvm.memcpy.p0.p0.i64(ptr align 1 %53, ptr nonnull align 1 %58, i64 %60, i1 false)
  %61 = load i32, ptr %11, align 8, !tbaa !27
  %62 = shl nsw i32 %61, 1
  %63 = sext i32 %62 to i64
  %64 = getelementptr inbounds i8, ptr %.05260, i64 %63
  %65 = add nuw nsw i32 %.05359, 2
  %66 = load i32, ptr %15, align 4, !tbaa !28
  %67 = add nsw i32 %66, -1
  %68 = icmp slt i32 %65, %67
  br i1 %68, label %35, label %.loopexit, !llvm.loop !41

69:                                               ; preds = %23
  %70 = icmp sgt i32 %25, 0
  br i1 %70, label %.lr.ph63, label %.loopexit

.lr.ph63:                                         ; preds = %69
  %71 = load i32, ptr %11, align 8, !tbaa !27
  %72 = shl i32 %71, 1
  %73 = sub nsw i32 %14, %25
  %74 = mul i32 %72, %73
  %75 = sext i32 %74 to i64
  %76 = getelementptr inbounds i8, ptr %8, i64 %75
  %77 = getelementptr inbounds nuw i8, ptr %1, i64 64
  br label %78

78:                                               ; preds = %.lr.ph63, %78
  %79 = phi i32 [ %71, %.lr.ph63 ], [ %87, %78 ]
  %.162 = phi ptr [ %76, %.lr.ph63 ], [ %90, %78 ]
  %.15461 = phi i32 [ 0, %.lr.ph63 ], [ %91, %78 ]
  %80 = load ptr, ptr %1, align 8, !tbaa !39
  %81 = load i32, ptr %77, align 8, !tbaa !40
  %82 = mul nsw i32 %81, %.15461
  %83 = sext i32 %82 to i64
  %84 = getelementptr inbounds i8, ptr %80, i64 %83
  %85 = shl nsw i32 %79, 1
  %86 = sext i32 %85 to i64
  tail call void @llvm.memcpy.p0.p0.i64(ptr align 1 %84, ptr align 1 %.162, i64 %86, i1 false)
  %87 = load i32, ptr %11, align 8, !tbaa !27
  %88 = shl nsw i32 %87, 1
  %89 = sext i32 %88 to i64
  %90 = getelementptr inbounds i8, ptr %.162, i64 %89
  %91 = add nuw nsw i32 %.15461, 1
  %92 = load i32, ptr %15, align 4, !tbaa !28
  %93 = icmp slt i32 %91, %92
  br i1 %93, label %78, label %.loopexit, !llvm.loop !43

.loopexit:                                        ; preds = %35, %78, %26, %69
  store i32 1, ptr %2, align 4, !tbaa !40
  br label %94

94:                                               ; preds = %20, %.loopexit, %19
  %.0 = phi i32 [ -1094995529, %19 ], [ %10, %.loopexit ], [ %21, %20 ]
  ret i32 %.0
}